target datalayout = "e-m:e-p270:32:32-p271:32:32-p272:64:64-i64:64-i128:128-f80:128-n8:16:32:64-S128"
target triple = "x86_64-pc-linux-gnu"

%struct.CVodeMemRec = type { double, ptr, ptr, i32, i32, i32, double, double, ptr, i32, ptr, ptr, i32, ptr, i32, i32, double, double, ptr, i32, i32, i32, ptr, ptr, ptr, i32, i32, ptr, ptr, ptr, i32, double, i32, i32, double, ptr, ptr, i32, ptr, ptr, i32, i32, i32, double, ptr, ptr, [13 x ptr], ptr, ptr, ptr, ptr, ptr, [13 x ptr], ptr, ptr, ptr, ptr, [13 x ptr], ptr, ptr, ptr, ptr, ptr, i32, [13 x ptr], ptr, ptr, ptr, ptr, ptr, i32, double, i32, i32, i32, i32, i32, double, double, double, double, double, double, double, double, [14 x double], [6 x double], [13 x double], double, double, double, double, double, double, double, double, double, double, double, i32, ptr, i32, i64, i32, i32, i32, i32, i32, double, double, double, i64, i64, i64, i64, i64, i64, i64, i64, i64, ptr, i64, i64, ptr, i64, i64, i64, i64, i64, i64, i32, i64, i64, i64, i64, i64, i64, double, double, double, ptr, ptr, ptr, ptr, ptr, i32, i32, i64, double, double, double, i32, double, i32, i32, i32, i32, i32, i32, i32, i32, i32, i32, i32, i32, i32, i32, i32, i32, ptr, ptr, ptr, i32, [6 x [4 x double]], i32, i64, ptr, i32, ptr, ptr, double, double, double, ptr, ptr, ptr, double, double, i32, i32, i64, ptr, i32, i32, ptr, i32 }

@.str = private unnamed_addr constant [7 x i8] c"CVODES\00", align 1
@.str.2 = private unnamed_addr constant [26 x i8] c"cvode_mem = NULL illegal.\00", align 1
@.str.7 = private unnamed_addr constant [15 x i8] c"CVodeSetMaxOrd\00", align 1
@.str.8 = private unnamed_addr constant [21 x i8] c"maxord <= 0 illegal.\00", align 1
@.str.9 = private unnamed_addr constant [50 x i8] c"Illegal attempt to increase maximum method order.\00", align 1

; Function Attrs: nounwind uwtable
define i32 @CVodeSetMaxOrd(ptr noundef %0, i32 noundef %1) #0 {
  %3 = alloca i32, align 4
  %4 = alloca ptr, align 8
  %5 = alloca i32, align 4
  %6 = alloca ptr, align 8
  %7 = alloca i32, align 4
  %8 = alloca i32, align 4
  store ptr %0, ptr %4, align 8, !tbaa !3
  store i32 %1, ptr %5, align 4, !tbaa !24
  call void @llvm.lifetime.start.p0(i64 8, ptr %6) #5
  call void @llvm.lifetime.start.p0(i64 4, ptr %7) #5
  %9 = load ptr, ptr %4, align 8, !tbaa !3
  %10 = icmp eq ptr %9, null
  br i1 %10, label %11, label %12

11:                                               ; preds = %2
  call void (ptr, i32, ptr, ptr, ptr, ...) @cvProcessError(ptr noundef null, i32 noundef -21, ptr noundef @.str, ptr noundef @.str.7, ptr noundef @.str.2)
  store i32 -21, ptr %3, align 4
  store i32 1, ptr %8, align 4
  br label %57

12:                                               ; preds = %2
  %13 = load ptr, ptr %4, align 8, !tbaa !3
  store ptr %13, ptr %6, align 8, !tbaa !7
  %14 = load i32, ptr %5, align 4, !tbaa !24
  %15 = icmp sle i32 %14, 0
  br i1 %15, label %16, label %18

16:                                               ; preds = %12
  %17 = load ptr, ptr %6, align 8, !tbaa !7
  call void (ptr, i32, ptr, ptr, ptr, ...) @cvProcessError(ptr noundef %17, i32 noundef -22, ptr noundef @.str, ptr noundef @.str.7, ptr noundef @.str.8)
  store i32 -22, ptr %3, align 4
  store i32 1, ptr %8, align 4
  br label %57

18:                                               ; preds = %12
  %19 = load ptr, ptr %6, align 8, !tbaa !7
  %20 = getelementptr inbounds nuw %struct.CVodeMemRec, ptr %19, i32 0, i32 153
  %21 = load i32, ptr %20, align 8, !tbaa !27
  store i32 %21, ptr %7, align 4, !tbaa !24
  %22 = load i32, ptr %7, align 4, !tbaa !24
  %23 = load ptr, ptr %6, align 8, !tbaa !7
  %24 = getelementptr inbounds nuw %struct.CVodeMemRec, ptr %23, i32 0, i32 154
  %25 = load i32, ptr %24, align 4, !tbaa !28
  %26 = icmp slt i32 %22, %25
  br i1 %26, label %27, label %29

27:                                               ; preds = %18
  %28 = load i32, ptr %7, align 4, !tbaa !24
  br label %33

29:                                               ; preds = %18
  %30 = load ptr, ptr %6, align 8, !tbaa !7
  %31 = getelementptr inbounds nuw %struct.CVodeMemRec, ptr %30, i32 0, i32 154
  %32 = load i32, ptr %31, align 4, !tbaa !28
  br label %33

33:                                               ; preds = %29, %27
  %34 = phi i32 [ %28, %27 ], [ %32, %29 ]
  store i32 %34, ptr %7, align 4, !tbaa !24
  %35 = load i32, ptr %7, align 4, !tbaa !24
  %36 = load ptr, ptr %6, align 8, !tbaa !7
  %37 = getelementptr inbounds nuw %struct.CVodeMemRec, ptr %36, i32 0, i32 155
  %38 = load i32, ptr %37, align 8, !tbaa !29
  %39 = icmp slt i32 %35, %38
  br i1 %39, label %40, label %42

40:                                               ; preds = %33
  %41 = load i32, ptr %7, align 4, !tbaa !24
  br label %46

42:                                               ; preds = %33
  %43 = load ptr, ptr %6, align 8, !tbaa !7
  %44 = getelementptr inbounds nuw %struct.CVodeMemRec, ptr %43, i32 0, i32 155
  %45 = load i32, ptr %44, align 8, !tbaa !29
  br label %46

46:                                               ; preds = %42, %40
  %47 = phi i32 [ %41, %40 ], [ %45, %42 ]
  store i32 %47, ptr %7, align 4, !tbaa !24
  %48 = load i32, ptr %5, align 4, !tbaa !24
  %49 = load i32, ptr %7, align 4, !tbaa !24
  %50 = icmp sgt i32 %48, %49
  br i1 %50, label %51, label %53

51:                                               ; preds = %46
  %52 = load ptr, ptr %6, align 8, !tbaa !7
  call void (ptr, i32, ptr, ptr, ptr, ...) @cvProcessError(ptr noundef %52, i32 noundef -22, ptr noundef @.str, ptr noundef @.str.7, ptr noundef @.str.9)
  store i32 -22, ptr %3, align 4
  store i32 1, ptr %8, align 4
  br label %57

53:                                               ; preds = %46
  %54 = load i32, ptr %5, align 4, !tbaa !24
  %55 = load ptr, ptr %6, align 8, !tbaa !7
  %56 = getelementptr inbounds nuw %struct.CVodeMemRec, ptr %55, i32 0, i32 101
  store i32 %54, ptr %56, align 8, !tbaa !30
  store i32 0, ptr %3, align 4
  store i32 1, ptr %8, align 4
  br label %57

57:                                               ; preds = %53, %51, %16, %11
  call void @llvm.lifetime.end.p0(i64 4, ptr %7) #5
  call void @llvm.lifetime.end.p0(i64 8, ptr %6) #5
  %58 = load i32, ptr %3, align 4
  ret i32 %58
}