; Function Attrs: nounwind uwtable
define range(i32 -22, 1) i32 @CVodeSetMaxOrd(ptr noundef %0, i32 noundef %1) local_unnamed_addr #0 {
  %3 = icmp eq ptr %0, null
  br i1 %3, label %4, label %5

4:                                                ; preds = %2
  tail call void (ptr, i32, ptr, ptr, ptr, ...) @cvProcessError(ptr noundef null, i32 noundef -21, ptr noundef nonnull @.str, ptr noundef nonnull @.str.7, ptr noundef nonnull @.str.2) #6
  br label %20

5:                                                ; preds = %2
  %6 = icmp slt i32 %1, 1
  br i1 %6, label %7, label %8

7:                                                ; preds = %5
  tail call void (ptr, i32, ptr, ptr, ptr, ...) @cvProcessError(ptr noundef nonnull %0, i32 noundef -22, ptr noundef nonnull @.str, ptr noundef nonnull @.str.7, ptr noundef nonnull @.str.8) #6
  br label %20

8:                                                ; preds = %5
  %9 = getelementptr inbounds nuw i8, ptr %0, i64 1760
  %10 = load i32, ptr %9, align 8, !tbaa !22
  %11 = getelementptr inbounds nuw i8, ptr %0, i64 1764
  %12 = load i32, ptr %11, align 4, !tbaa !23
  %. = tail call i32 @llvm.smin.i32(i32 %10, i32 %12)
  %13 = getelementptr inbounds nuw i8, ptr %0, i64 1768
  %14 = load i32, ptr %13, align 8, !tbaa !24
  %15 = tail call i32 @llvm.smin.i32(i32 %., i32 %14)
  %16 = icmp sgt i32 %1, %15
  br i1 %16, label %17, label %18

17:                                               ; preds = %8
  tail call void (ptr, i32, ptr, ptr, ptr, ...) @cvProcessError(ptr noundef nonnull %0, i32 noundef -22, ptr noundef nonnull @.str, ptr noundef nonnull @.str.7, ptr noundef nonnull @.str.9) #6
  br label %20

18:                                               ; preds = %8
  %19 = getelementptr inbounds nuw i8, ptr %0, i64 1368
  store i32 %1, ptr %19, align 8, !tbaa !25
  br label %20

20:                                               ; preds = %18, %17, %7, %4
  %.0 = phi i32 [ -21, %4 ], [ -22, %7 ], [ -22, %17 ], [ 0, %18 ]
  ret i32 %.0
}